#include <math.h>
#include <stdio.h>
#include <stdlib.h>
#include <string.h>
#include <iostream>
using namespace std;

int num(int a,int b,int c)//??????????
{
	int sum=0,j;//sum????
	if(a>c)return 0;//???????????????0
	if(b==1)return 1;//????????????????
	for(j=a;j<=c;j++)//?????????????
		if(c%j==0)sum=sum+num(j,b-1,c/j);
	return sum;
}
int main()
{
	int k,n,m,e=0,i;//e??????
	cin>>n;
	while(e<n)
	{
		cin>>m;
		k=0;//k??m????????????????
		int f=m;
		for(i=2;i<=f;i++)
			if(f%i==0)
			{
				k++;
				f=f/i;
				i=1;
			}
		cout<<num(1,k,m)<<endl;//????????
		e++;
	}
	return 0;
}
